; Function Attrs: mustprogress uwtable
define void @_ZN3gmx24AnalysisDataStorageFrame11finishFrameEv(ptr nocapture noundef nonnull readonly align 8 dereferenceable(45) %0) local_unnamed_addr #1 align 2 {
  %2 = load ptr, ptr %0, align 8
  %.not = icmp eq ptr %2, null
  br i1 %.not, label %3, label %4

3:                                                ; preds = %1
  tail call void @_ZN3gmx8internal13assertHandlerEPKcS2_S2_S2_i(ptr noundef nonnull @.str.28, ptr noundef nonnull @.str.29, ptr noundef nonnull @"__PRETTY_FUNCTION__._ZZN3gmx24AnalysisDataStorageFrame11finishFrameEvENK3$_0clEv", ptr noundef nonnull @.str.2, i32 noundef 720) #19
  unreachable

4:                                                ; preds = %1
  %5 = load ptr, ptr %2, align 8
  %6 = getelementptr inbounds i8, ptr %2, i64 8
  %7 = load i32, ptr %6, align 4
  tail call void @_ZN3gmx8internal23AnalysisDataStorageImpl11finishFrameEi(ptr noundef nonnull align 8 dereferenceable(92) %5, i32 noundef %7)
  ret void
}